target datalayout = "e-m:e-p270:32:32-p271:32:32-p272:64:64-i64:64-i128:128-f80:128-n8:16:32:64-S128"
target triple = "x86_64-pc-linux-gnu"

module asm ".section .qtversion, \22aG\22, @progbits, qt_version_tag, comdat"
module asm ".align 8"
module asm ".quad qt_version_tag@GOT"
module asm ".long ((6<<16)|(2<<8)|(4))"
module asm ".align 8"
module asm ".previous"

%class.QFlags = type { i32 }
%class.AudioSilenceGenerator = type { %class.QIODevice, i64 }
%class.QIODevice = type { %class.QObject }
%class.QObject = type { ptr, %class.QScopedPointer }
%class.QScopedPointer = type { ptr }

$_ZN6QFlagsIN13QIODeviceBase12OpenModeFlagEEC2ES1_ = comdat any

$_ZNSt14numeric_limitsIxE3maxEv = comdat any

$_ZN21AudioSilenceGeneratorD0Ev = comdat any

@_ZTV21AudioSilenceGenerator = unnamed_addr constant { [31 x ptr] } { [31 x ptr] [ptr null, ptr @_ZTI21AudioSilenceGenerator, ptr @_ZNK9QIODevice10metaObjectEv, ptr @_ZN9QIODevice11qt_metacastEPKc, ptr @_ZN9QIODevice11qt_metacallEN11QMetaObject4CallEiPPv, ptr @_ZN9QIODeviceD2Ev, ptr @_ZN21AudioSilenceGeneratorD0Ev, ptr @_ZN7QObject5eventEP6QEvent, ptr @_ZN7QObject11eventFilterEPS_P6QEvent, ptr @_ZN7QObject10timerEventEP11QTimerEvent, ptr @_ZN7QObject10childEventEP11QChildEvent, ptr @_ZN7QObject11customEventEP6QEvent, ptr @_ZN7QObject13connectNotifyERK11QMetaMethod, ptr @_ZN7QObject16disconnectNotifyERK11QMetaMethod, ptr @_ZNK9QIODevice12isSequentialEv, ptr @_ZN9QIODevice4openE6QFlagsIN13QIODeviceBase12OpenModeFlagEE, ptr @_ZN9QIODevice5closeEv, ptr @_ZNK21AudioSilenceGenerator3posEv, ptr @_ZNK21AudioSilenceGenerator4sizeEv, ptr @_ZN21AudioSilenceGenerator4seekEx, ptr @_ZNK9QIODevice5atEndEv, ptr @_ZN9QIODevice5resetEv, ptr @_ZNK9QIODevice14bytesAvailableEv, ptr @_ZNK9QIODevice12bytesToWriteEv, ptr @_ZNK9QIODevice11canReadLineEv, ptr @_ZN9QIODevice16waitForReadyReadEi, ptr @_ZN9QIODevice19waitForBytesWrittenEi, ptr @_ZN21AudioSilenceGenerator8readDataEPcx, ptr @_ZN9QIODevice12readLineDataEPcx, ptr @_ZN9QIODevice8skipDataEx, ptr @_ZN21AudioSilenceGenerator9writeDataEPKcx] }, align 8
@_ZTI21AudioSilenceGenerator = constant { ptr, ptr, ptr } { ptr getelementptr inbounds (ptr, ptr @_ZTVN10__cxxabiv120__si_class_type_infoE, i64 2), ptr @_ZTS21AudioSilenceGenerator, ptr @_ZTI9QIODevice }, align 8
@_ZTVN10__cxxabiv120__si_class_type_infoE = external global [0 x ptr]
@_ZTS21AudioSilenceGenerator = constant [24 x i8] c"21AudioSilenceGenerator\00", align 1
@_ZTI9QIODevice = external constant ptr

@_ZN21AudioSilenceGeneratorC1EP7QObject = unnamed_addr alias void (ptr, ptr), ptr @_ZN21AudioSilenceGeneratorC2EP7QObject

; Function Attrs: mustprogress null_pointer_is_valid sspstrong uwtable
define void @_ZN21AudioSilenceGeneratorC2EP7QObject(ptr noundef align 8 dereferenceable_or_null(24) %0, ptr noundef %1) unnamed_addr #0 align 2 personality ptr @__gxx_personality_v0 {
  %3 = alloca ptr, align 8
  %4 = alloca ptr, align 8
  %5 = alloca %class.QFlags, align 4
  %6 = alloca ptr, align 8
  %7 = alloca i32, align 4
  store ptr %0, ptr %3, align 8
  store ptr %1, ptr %4, align 8
  %8 = load ptr, ptr %3, align 8
  %9 = load ptr, ptr %4, align 8
  call void @_ZN9QIODeviceC2EP7QObject(ptr noundef align 8 dereferenceable_or_null(16) %8, ptr noundef %9)
  store ptr getelementptr inbounds inrange(-16, 232) ({ [31 x ptr] }, ptr @_ZTV21AudioSilenceGenerator, i32 0, i32 0, i32 2), ptr %8, align 8
  %10 = getelementptr inbounds nuw %class.AudioSilenceGenerator, ptr %8, i32 0, i32 1
  store i64 0, ptr %10, align 8
  call void @_ZN6QFlagsIN13QIODeviceBase12OpenModeFlagEEC2ES1_(ptr noundef align 4 dereferenceable_or_null(4) %5, i32 noundef 1) #8
  %11 = getelementptr inbounds nuw %class.QFlags, ptr %5, i32 0, i32 0
  %12 = load i32, ptr %11, align 4
  %13 = invoke noundef zeroext i1 @_ZN9QIODevice4openE6QFlagsIN13QIODeviceBase12OpenModeFlagEE(ptr noundef align 8 dereferenceable_or_null(16) %8, i32 %12)
          to label %14 unwind label %15

14:                                               ; preds = %2
  ret void

15:                                               ; preds = %2
  %16 = landingpad { ptr, i32 }
          cleanup
  %17 = extractvalue { ptr, i32 } %16, 0
  store ptr %17, ptr %6, align 8
  %18 = extractvalue { ptr, i32 } %16, 1
  store i32 %18, ptr %7, align 4
  call void @_ZN9QIODeviceD2Ev(ptr noundef align 8 dereferenceable_or_null(16) %8) #8
  br label %19

19:                                               ; preds = %15
  %20 = load ptr, ptr %6, align 8
  %21 = load i32, ptr %7, align 4
  %22 = insertvalue { ptr, i32 } poison, ptr %20, 0
  %23 = insertvalue { ptr, i32 } %22, i32 %21, 1
  resume { ptr, i32 } %23
}

; Function Attrs: null_pointer_is_valid
declare void @_ZN9QIODeviceC2EP7QObject(ptr noundef align 8 dereferenceable_or_null(16), ptr noundef) unnamed_addr #1

; Function Attrs: null_pointer_is_valid
declare noundef zeroext i1 @_ZN9QIODevice4openE6QFlagsIN13QIODeviceBase12OpenModeFlagEE(ptr noundef align 8 dereferenceable_or_null(16), i32) unnamed_addr #1

; Function Attrs: inlinehint mustprogress nounwind null_pointer_is_valid sspstrong uwtable
define linkonce_odr void @_ZN6QFlagsIN13QIODeviceBase12OpenModeFlagEEC2ES1_(ptr noundef align 4 dereferenceable_or_null(4) %0, i32 noundef %1) unnamed_addr #2 comdat align 2 {
  %3 = alloca ptr, align 8
  %4 = alloca i32, align 4
  store ptr %0, ptr %3, align 8
  store i32 %1, ptr %4, align 4
  %5 = load ptr, ptr %3, align 8
  %6 = getelementptr inbounds nuw %class.QFlags, ptr %5, i32 0, i32 0
  %7 = load i32, ptr %4, align 4
  store i32 %7, ptr %6, align 4
  ret void
}

declare i32 @__gxx_personality_v0(...)

; Function Attrs: mustprogress nounwind null_pointer_is_valid sspstrong uwtable
define noundef i64 @_ZNK21AudioSilenceGenerator4sizeEv(ptr noundef align 8 dereferenceable_or_null(24) %0) unnamed_addr #3 align 2 {
  %2 = alloca ptr, align 8
  store ptr %0, ptr %2, align 8
  %3 = call noundef i64 @_ZNSt14numeric_limitsIxE3maxEv() #8
  ret i64 %3
}

; Function Attrs: mustprogress nounwind null_pointer_is_valid sspstrong uwtable
define linkonce_odr noundef i64 @_ZNSt14numeric_limitsIxE3maxEv() #3 comdat align 2 {
  ret i64 9223372036854775807
}

; Function Attrs: mustprogress nounwind null_pointer_is_valid sspstrong uwtable
define noundef i64 @_ZNK21AudioSilenceGenerator3posEv(ptr noundef align 8 dereferenceable_or_null(24) %0) unnamed_addr #3 align 2 {
  %2 = alloca ptr, align 8
  store ptr %0, ptr %2, align 8
  %3 = load ptr, ptr %2, align 8
  %4 = getelementptr inbounds nuw %class.AudioSilenceGenerator, ptr %3, i32 0, i32 1
  %5 = load i64, ptr %4, align 8
  ret i64 %5
}

; Function Attrs: mustprogress nounwind null_pointer_is_valid sspstrong uwtable
define noundef zeroext i1 @_ZN21AudioSilenceGenerator4seekEx(ptr noundef align 8 dereferenceable_or_null(24) %0, i64 noundef %1) unnamed_addr #3 align 2 {
  %3 = alloca ptr, align 8
  %4 = alloca i64, align 8
  store ptr %0, ptr %3, align 8
  store i64 %1, ptr %4, align 8
  %5 = load ptr, ptr %3, align 8
  %6 = load i64, ptr %4, align 8
  %7 = getelementptr inbounds nuw %class.AudioSilenceGenerator, ptr %5, i32 0, i32 1
  store i64 %6, ptr %7, align 8
  ret i1 true
}

; Function Attrs: mustprogress nounwind null_pointer_is_valid sspstrong uwtable
define noundef i64 @_ZN21AudioSilenceGenerator8readDataEPcx(ptr noundef align 8 dereferenceable_or_null(24) %0, ptr noundef %1, i64 noundef %2) unnamed_addr #3 align 2 {
  %4 = alloca ptr, align 8
  %5 = alloca ptr, align 8
  %6 = alloca i64, align 8
  store ptr %0, ptr %4, align 8
  store ptr %1, ptr %5, align 8
  store i64 %2, ptr %6, align 8
  %7 = load ptr, ptr %4, align 8
  %8 = load ptr, ptr %5, align 8
  %9 = load i64, ptr %6, align 8
  %10 = call ptr @memset.inline(ptr noundef %8, i32 noundef 0, i64 noundef %9) #8
  %11 = load i64, ptr %6, align 8
  %12 = getelementptr inbounds nuw %class.AudioSilenceGenerator, ptr %7, i32 0, i32 1
  %13 = load i64, ptr %12, align 8
  %14 = add i64 %13, %11
  store i64 %14, ptr %12, align 8
  %15 = load i64, ptr %6, align 8
  ret i64 %15
}

; Function Attrs: alwaysinline mustprogress nounwind
define internal ptr @memset.inline(ptr %0, i32 %1, i64 %2) #4 {
  %4 = alloca ptr, align 8
  %5 = alloca i32, align 4
  %6 = alloca i64, align 8
  store ptr %0, ptr %4, align 8
  store i32 %1, ptr %5, align 4
  store i64 %2, ptr %6, align 8
  %7 = load ptr, ptr %4, align 8
  %8 = load i32, ptr %5, align 4
  %9 = load i64, ptr %6, align 8
  %10 = load ptr, ptr %4, align 8
  %11 = call i64 @llvm.objectsize.i64.p0(ptr %10, i1 false, i1 true, i1 true)
  %12 = call ptr @__memset_chk(ptr noundef %7, i32 noundef %8, i64 noundef %9, i64 noundef %11) #8
  ret ptr %12
}

; Function Attrs: mustprogress nounwind null_pointer_is_valid sspstrong uwtable
define noundef i64 @_ZN21AudioSilenceGenerator9writeDataEPKcx(ptr noundef align 8 dereferenceable_or_null(24) %0, ptr noundef %1, i64 noundef %2) unnamed_addr #3 align 2 {
  %4 = alloca ptr, align 8
  %5 = alloca ptr, align 8
  %6 = alloca i64, align 8
  store ptr %0, ptr %4, align 8
  store ptr %1, ptr %5, align 8
  store i64 %2, ptr %6, align 8
  %7 = load i64, ptr %6, align 8
  ret i64 %7
}

; Function Attrs: null_pointer_is_valid
declare noundef ptr @_ZNK9QIODevice10metaObjectEv(ptr noundef align 8 dereferenceable_or_null(16)) unnamed_addr #1

; Function Attrs: null_pointer_is_valid
declare noundef ptr @_ZN9QIODevice11qt_metacastEPKc(ptr noundef align 8 dereferenceable_or_null(16), ptr noundef) unnamed_addr #1

; Function Attrs: null_pointer_is_valid
declare noundef i32 @_ZN9QIODevice11qt_metacallEN11QMetaObject4CallEiPPv(ptr noundef align 8 dereferenceable_or_null(16), i32 noundef, i32 noundef, ptr noundef) unnamed_addr #1

; Function Attrs: nounwind null_pointer_is_valid
declare void @_ZN9QIODeviceD2Ev(ptr noundef align 8 dereferenceable_or_null(16)) unnamed_addr #5

; Function Attrs: mustprogress nounwind null_pointer_is_valid sspstrong uwtable
define linkonce_odr void @_ZN21AudioSilenceGeneratorD0Ev(ptr noundef align 8 dereferenceable_or_null(24) %0) unnamed_addr #3 comdat align 2 {
  %2 = alloca ptr, align 8
  store ptr %0, ptr %2, align 8
  %3 = load ptr, ptr %2, align 8
  call void @_ZN9QIODeviceD2Ev(ptr noundef align 8 dereferenceable_or_null(24) %3) #8
  call void @_ZdlPvm(ptr noundef %3, i64 noundef 24) #9
  ret void
}

; Function Attrs: null_pointer_is_valid
declare noundef zeroext i1 @_ZN7QObject5eventEP6QEvent(ptr noundef align 8 dereferenceable_or_null(16), ptr noundef) unnamed_addr #1

; Function Attrs: null_pointer_is_valid
declare noundef zeroext i1 @_ZN7QObject11eventFilterEPS_P6QEvent(ptr noundef align 8 dereferenceable_or_null(16), ptr noundef, ptr noundef) unnamed_addr #1

; Function Attrs: null_pointer_is_valid
declare void @_ZN7QObject10timerEventEP11QTimerEvent(ptr noundef align 8 dereferenceable_or_null(16), ptr noundef) unnamed_addr #1

; Function Attrs: null_pointer_is_valid
declare void @_ZN7QObject10childEventEP11QChildEvent(ptr noundef align 8 dereferenceable_or_null(16), ptr noundef) unnamed_addr #1

; Function Attrs: null_pointer_is_valid
declare void @_ZN7QObject11customEventEP6QEvent(ptr noundef align 8 dereferenceable_or_null(16), ptr noundef) unnamed_addr #1

; Function Attrs: null_pointer_is_valid
declare void @_ZN7QObject13connectNotifyERK11QMetaMethod(ptr noundef align 8 dereferenceable_or_null(16), ptr noundef align 1) unnamed_addr #1

; Function Attrs: null_pointer_is_valid
declare void @_ZN7QObject16disconnectNotifyERK11QMetaMethod(ptr noundef align 8 dereferenceable_or_null(16), ptr noundef align 1) unnamed_addr #1

; Function Attrs: null_pointer_is_valid
declare noundef zeroext i1 @_ZNK9QIODevice12isSequentialEv(ptr noundef align 8 dereferenceable_or_null(16)) unnamed_addr #1

; Function Attrs: null_pointer_is_valid
declare void @_ZN9QIODevice5closeEv(ptr noundef align 8 dereferenceable_or_null(16)) unnamed_addr #1

; Function Attrs: null_pointer_is_valid
declare noundef zeroext i1 @_ZNK9QIODevice5atEndEv(ptr noundef align 8 dereferenceable_or_null(16)) unnamed_addr #1

; Function Attrs: null_pointer_is_valid
declare noundef zeroext i1 @_ZN9QIODevice5resetEv(ptr noundef align 8 dereferenceable_or_null(16)) unnamed_addr #1

; Function Attrs: null_pointer_is_valid
declare noundef i64 @_ZNK9QIODevice14bytesAvailableEv(ptr noundef align 8 dereferenceable_or_null(16)) unnamed_addr #1

; Function Attrs: null_pointer_is_valid
declare noundef i64 @_ZNK9QIODevice12bytesToWriteEv(ptr noundef align 8 dereferenceable_or_null(16)) unnamed_addr #1

; Function Attrs: null_pointer_is_valid
declare noundef zeroext i1 @_ZNK9QIODevice11canReadLineEv(ptr noundef align 8 dereferenceable_or_null(16)) unnamed_addr #1

; Function Attrs: null_pointer_is_valid
declare noundef zeroext i1 @_ZN9QIODevice16waitForReadyReadEi(ptr noundef align 8 dereferenceable_or_null(16), i32 noundef) unnamed_addr #1

; Function Attrs: null_pointer_is_valid
declare noundef zeroext i1 @_ZN9QIODevice19waitForBytesWrittenEi(ptr noundef align 8 dereferenceable_or_null(16), i32 noundef) unnamed_addr #1

; Function Attrs: null_pointer_is_valid
declare noundef i64 @_ZN9QIODevice12readLineDataEPcx(ptr noundef align 8 dereferenceable_or_null(16), ptr noundef, i64 noundef) unnamed_addr #1

; Function Attrs: null_pointer_is_valid
declare noundef i64 @_ZN9QIODevice8skipDataEx(ptr noundef align 8 dereferenceable_or_null(16), i64 noundef) unnamed_addr #1

; Function Attrs: nounwind null_pointer_is_valid
declare ptr @__memset_chk(ptr noundef, i32 noundef, i64 noundef, i64 noundef) #5

; Function Attrs: nocallback nofree nosync nounwind speculatable willreturn memory(none)
declare i64 @llvm.objectsize.i64.p0(ptr, i1 immarg, i1 immarg, i1 immarg) #6

; Function Attrs: nobuiltin nounwind null_pointer_is_valid
declare void @_ZdlPvm(ptr noundef, i64 noundef) #7


!llvm.module.flags = !{!0, !1, !2, !3, !4, !5}

!0 = !{i32 1, !"wchar_size", i32 4}
!1 = !{i32 8, !"cf-protection-return", i32 1}
!2 = !{i32 8, !"cf-protection-branch", i32 1}
!3 = !{i32 4, !"probe-stack", !"inline-asm"}
!4 = !{i32 8, !"PIC Level", i32 2}
!5 = !{i32 7, !"uwtable", i32 2}
